target datalayout = "e-m:e-p270:32:32-p271:32:32-p272:64:64-i64:64-i128:128-f80:128-n8:16:32:64-S128"
target triple = "x86_64-pc-linux-gnu"

%struct.FT_BBox_ = type { i64, i64, i64, i64 }
%struct.FT_Vector_ = type { i64, i64 }
%struct.FT_Generic_ = type { ptr, ptr }
%struct.FT_FaceRec_ = type { i64, i64, i64, i64, i64, ptr, ptr, i32, ptr, i32, ptr, %struct.FT_Generic_, %struct.FT_BBox_, i16, i16, i16, i16, i16, i16, i16, i16, ptr, ptr, ptr, ptr, ptr, ptr, %struct.FT_ListRec_, %struct.FT_Generic_, ptr, ptr }
%struct.FT_ListRec_ = type { ptr, ptr }
%struct.FT_Matrix_ = type { i64, i64, i64, i64 }
%struct.T1_CMapStdRec_ = type { %struct.FT_CMapRec_, ptr, ptr, i32, ptr }
%struct.FT_CMapRec_ = type { %struct.FT_CharMapRec_, ptr }
%struct.FT_CharMapRec_ = type { ptr, i32, i16, i16 }
%struct.T1_FaceRec_ = type { %struct.FT_FaceRec_, %struct.T1_FontRec_, ptr, ptr, ptr, [2 x %struct.FT_CharMapRec_], [2 x ptr], ptr, i32, i32, i32, ptr, ptr }
%struct.T1_FontRec_ = type { %struct.PS_FontInfoRec_, %struct.PS_FontExtraRec_, %struct.PS_PrivateRec_, ptr, i32, %struct.T1_EncodingRecRec_, ptr, ptr, ptr, i32, ptr, ptr, ptr, i32, ptr, ptr, ptr, i8, i8, %struct.FT_Matrix_, %struct.FT_Vector_, %struct.FT_BBox_, i64, i64 }
%struct.PS_FontInfoRec_ = type { ptr, ptr, ptr, ptr, ptr, i64, i8, i16, i16 }
%struct.PS_FontExtraRec_ = type { i16 }
%struct.PS_PrivateRec_ = type { i32, i32, i8, i8, i8, i8, [14 x i16], [10 x i16], [14 x i16], [10 x i16], i64, i32, i32, [1 x i16], [1 x i16], i8, i8, i8, i8, [13 x i16], [13 x i16], i64, i64, i64, [2 x i16] }
%struct.T1_EncodingRecRec_ = type { i32, i32, i32, ptr, ptr }
%struct.FT_Service_PsCMapsRec_ = type { ptr, ptr, ptr, ptr, ptr, ptr, ptr, ptr }

; Function Attrs: nounwind uwtable
define internal void @t1_cmap_std_init(ptr noundef %0, i32 noundef %1) #0 {
  %3 = alloca ptr, align 8
  %4 = alloca i32, align 4
  %5 = alloca ptr, align 8
  %6 = alloca ptr, align 8
  store ptr %0, ptr %3, align 8
  store i32 %1, ptr %4, align 4
  %7 = load ptr, ptr %3, align 8
  %8 = getelementptr inbounds %struct.FT_CMapRec_, ptr %7, i32 0, i32 0
  %9 = getelementptr inbounds %struct.FT_CharMapRec_, ptr %8, i32 0, i32 0
  %10 = load ptr, ptr %9, align 8
  store ptr %10, ptr %5, align 8
  %11 = load ptr, ptr %5, align 8
  %12 = getelementptr inbounds %struct.T1_FaceRec_, ptr %11, i32 0, i32 2
  %13 = load ptr, ptr %12, align 8
  store ptr %13, ptr %6, align 8
  %14 = load ptr, ptr %5, align 8
  %15 = getelementptr inbounds %struct.T1_FaceRec_, ptr %14, i32 0, i32 1
  %16 = getelementptr inbounds %struct.T1_FontRec_, ptr %15, i32 0, i32 13
  %17 = load i32, ptr %16, align 8
  %18 = load ptr, ptr %3, align 8
  %19 = getelementptr inbounds %struct.T1_CMapStdRec_, ptr %18, i32 0, i32 3
  store i32 %17, ptr %19, align 8
  %20 = load ptr, ptr %5, align 8
  %21 = getelementptr inbounds %struct.T1_FaceRec_, ptr %20, i32 0, i32 1
  %22 = getelementptr inbounds %struct.T1_FontRec_, ptr %21, i32 0, i32 14
  %23 = load ptr, ptr %22, align 8
  %24 = load ptr, ptr %3, align 8
  %25 = getelementptr inbounds %struct.T1_CMapStdRec_, ptr %24, i32 0, i32 4
  store ptr %23, ptr %25, align 8
  %26 = load ptr, ptr %6, align 8
  %27 = getelementptr inbounds %struct.FT_Service_PsCMapsRec_, ptr %26, i32 0, i32 5
  %28 = load ptr, ptr %27, align 8
  %29 = load ptr, ptr %3, align 8
  %30 = getelementptr inbounds %struct.T1_CMapStdRec_, ptr %29, i32 0, i32 2
  store ptr %28, ptr %30, align 8
  %31 = load i32, ptr %4, align 4
  %32 = icmp ne i32 %31, 0
  br i1 %32, label %33, label %37

33:                                               ; preds = %2
  %34 = load ptr, ptr %6, align 8
  %35 = getelementptr inbounds %struct.FT_Service_PsCMapsRec_, ptr %34, i32 0, i32 7
  %36 = load ptr, ptr %35, align 8
  br label %41

37:                                               ; preds = %2
  %38 = load ptr, ptr %6, align 8
  %39 = getelementptr inbounds %struct.FT_Service_PsCMapsRec_, ptr %38, i32 0, i32 6
  %40 = load ptr, ptr %39, align 8
  br label %41

41:                                               ; preds = %37, %33
  %42 = phi ptr [ %36, %33 ], [ %40, %37 ]
  %43 = load ptr, ptr %3, align 8
  %44 = getelementptr inbounds %struct.T1_CMapStdRec_, ptr %43, i32 0, i32 1
  store ptr %42, ptr %44, align 8
  br label %45

45:                                               ; preds = %41
  br label %46

46:                                               ; preds = %45
  ret void
}

; Function Attrs: nounwind uwtable
define internal i32 @t1_cmap_standard_init(ptr noundef %0, ptr noundef %1) #0 {
  %3 = alloca ptr, align 8
  %4 = alloca ptr, align 8
  %5 = alloca ptr, align 8
  store ptr %0, ptr %3, align 8
  store ptr %1, ptr %4, align 8
  %6 = load ptr, ptr %3, align 8
  store ptr %6, ptr %5, align 8
  %7 = load ptr, ptr %4, align 8
  store ptr %7, ptr %4, align 8
  %8 = load ptr, ptr %5, align 8
  call void @t1_cmap_std_init(ptr noundef %8, i32 noundef 0)
  ret i32 0
}